

 Start  Stop   Length Name                   Class
 00000H 006ADH 006AEH CODE                   
 006AEH 00818H 0016BH CONST                  
 0081AH 028C9H 020B0H DATA                   
 028D0H 029CFH 00100H STACK                  

 Origin   Group
 0000:0   DG

  Address         Publics by Name

 0000:076B       ARGS_ERR
 0000:0787       ARGS_ERR_LEN
 0000:07C9       BF1NE
 0000:07E4       BF1NE_LEN
 0000:07E5       BF2NE
 0000:0800       BF2NE_LEN
 0000:0801       BHEAD
 0000:0818       BHEAD_LEN
 0000:0713       CRLF
 0000:0795       DIFF_SEP
 0000:07C8       DIFF_SEP_LEN
 0000:074F       DIF_ERR
 0000:076A       DIF_ERR_LEN
 0000:0737       FILE_ERR
 0000:073F       FILE_ERR_LEN
 0000:0788       FNAME_SEP
 0000:0794       FNAME_SEP_LEN
 0000:0726       FOUND_ERR_POST
 0000:0726       FOUND_ERR_POST_LEN
 0000:0716       FOUND_ERR_PRE
 0000:0725       FOUND_ERR_PRE_LEN
 0000:0740       INT_ERR
 0000:074E       INT_ERR_LEN
 0000:0712       OPT_E
 0000:0700       OPT_ERR
 0000:0715       OPT_ERR_LEN
 0000:0736       READ_ERR_POST
 0000:0736       READ_ERR_POST_LEN
 0000:0727       READ_ERR_PRE
 0000:0735       READ_ERR_PRE_LEN
 0000:06EA       VERS_ERR

  Address         Publics by Value

 0000:06EA       VERS_ERR
 0000:0700       OPT_ERR
 0000:0712       OPT_E
 0000:0713       CRLF
 0000:0715       OPT_ERR_LEN
 0000:0716       FOUND_ERR_PRE
 0000:0725       FOUND_ERR_PRE_LEN
 0000:0726       FOUND_ERR_POST
 0000:0726       FOUND_ERR_POST_LEN
 0000:0727       READ_ERR_PRE
 0000:0735       READ_ERR_PRE_LEN
 0000:0736       READ_ERR_POST
 0000:0736       READ_ERR_POST_LEN
 0000:0737       FILE_ERR
 0000:073F       FILE_ERR_LEN
 0000:0740       INT_ERR
 0000:074E       INT_ERR_LEN
 0000:074F       DIF_ERR
 0000:076A       DIF_ERR_LEN
 0000:076B       ARGS_ERR
 0000:0787       ARGS_ERR_LEN
 0000:0788       FNAME_SEP
 0000:0794       FNAME_SEP_LEN
 0000:0795       DIFF_SEP
 0000:07C8       DIFF_SEP_LEN
 0000:07C9       BF1NE
 0000:07E4       BF1NE_LEN
 0000:07E5       BF2NE
 0000:0800       BF2NE_LEN
 0000:0801       BHEAD
 0000:0818       BHEAD_LEN

Program entry point at 0000:0000
