

Warning: no stack segment

 Start  Stop   Length Name                   Class
 00000H 01D22H 01D23H CODE                   
 01D24H 020E7H 003C4H CONST                  
 020E8H 02391H 002AAH DATA                   

 Origin   Group
 0000:0   DG

  Address         Publics by Name

 0000:2033       BADCOM
 0000:1F16       BADDRV
 0000:1F4D       BAD_VERS_ERR
 0000:1F93       BCREAT
 0000:121B       CHKRANGE
 0000:2110       COMLINE
 0000:1C89       CRLF
 0000:2104       CURRENT
 0000:2096       DEST
 0000:1FEA       DSKFUL
 0000:210E       ENDTXT
 0000:206F       EOF
 0000:2299       FCB2
 0000:2022       FILENM
 0000:1BFC       FINDLIN
 0000:1AE1       FNDFIRST
 0000:1B76       FNDNEXT
 0000:1D4C       FUDGE
 0000:1D47       HARDCH
 0000:1D05       INT_24
 0000:1CDB       KILL_BL
 0000:1C8E       LF
 0000:20FC       LSTFND
 0000:20FE       LSTNUM
 0000:200A       MEMFUL
 0000:20BD       MRGERR
 0000:1F31       NDNAME
 0000:2041       NEWFIL
 0000:20FA       NEWLEN
 0000:1FA9       NOBAK
 0000:1FCC       NODIR
 0000:204C       NOSUCH
 0000:2100       NUMPOS
 0000:230E       OLDDAT
 0000:20F8       OLDLEN
 0000:1F63       OPT_ERR
 0000:1C90       OUT
 0000:20E8       PARAM1
 0000:20EA       PARAM2
 0000:2106       POINTER
 0000:2308       QFLG
 0000:1AB6       QUERY
 0000:1A91       QUIT
 0000:1CE1       REST_DIR
 0000:1F75       RO_ERR
 0000:1C1E       SCANLN
 0000:1C2C       SHOWNUM
 0000:2102       SRCHCNT
 0000:230B       SRCHFLG
 0000:230F       SRCHMOD
 0000:2391       START
 0000:205F       TOOLNG
 0000:1E13       TXT1
 0000:1E94       TXT2
 0000:1C99       UNQUOTE
 0000:1D51       USERDIR
 0000:1D4D       USER_DRIVE

  Address         Publics by Value

 0000:121B       CHKRANGE
 0000:1A91       QUIT
 0000:1AB6       QUERY
 0000:1AE1       FNDFIRST
 0000:1B76       FNDNEXT
 0000:1BFC       FINDLIN
 0000:1C1E       SCANLN
 0000:1C2C       SHOWNUM
 0000:1C89       CRLF
 0000:1C8E       LF
 0000:1C90       OUT
 0000:1C99       UNQUOTE
 0000:1CDB       KILL_BL
 0000:1CE1       REST_DIR
 0000:1D05       INT_24
 0000:1D47       HARDCH
 0000:1D4C       FUDGE
 0000:1D4D       USER_DRIVE
 0000:1D51       USERDIR
 0000:1E13       TXT1
 0000:1E94       TXT2
 0000:1F16       BADDRV
 0000:1F31       NDNAME
 0000:1F4D       BAD_VERS_ERR
 0000:1F63       OPT_ERR
 0000:1F75       RO_ERR
 0000:1F93       BCREAT
 0000:1FA9       NOBAK
 0000:1FCC       NODIR
 0000:1FEA       DSKFUL
 0000:200A       MEMFUL
 0000:2022       FILENM
 0000:2033       BADCOM
 0000:2041       NEWFIL
 0000:204C       NOSUCH
 0000:205F       TOOLNG
 0000:206F       EOF
 0000:2096       DEST
 0000:20BD       MRGERR
 0000:20E8       PARAM1
 0000:20EA       PARAM2
 0000:20F8       OLDLEN
 0000:20FA       NEWLEN
 0000:20FC       LSTFND
 0000:20FE       LSTNUM
 0000:2100       NUMPOS
 0000:2102       SRCHCNT
 0000:2104       CURRENT
 0000:2106       POINTER
 0000:210E       ENDTXT
 0000:2110       COMLINE
 0000:2299       FCB2
 0000:2308       QFLG
 0000:230B       SRCHFLG
 0000:230E       OLDDAT
 0000:230F       SRCHMOD
 0000:2391       START

Program entry point at 0000:0100
